; Function Attrs: nounwind uwtable
define hidden range(i32 -5, 1) i32 @handleSocketError(ptr noundef %0, i32 noundef %1) local_unnamed_addr #0 {
  switch i32 %1, label %6 [
    i32 115, label %handleSocketErrorWithMessage.exit
    i32 71, label %7
    i32 111, label %3
    i32 110, label %3
    i32 107, label %3
    i32 113, label %4
    i32 98, label %5
    i32 99, label %5
    i32 13, label %5
  ]

3:                                                ; preds = %2, %2, %2
  br label %7

4:                                                ; preds = %2
  br label %7

5:                                                ; preds = %2, %2, %2
  br label %7

6:                                                ; preds = %2
  br label %7

7:                                                ; preds = %6, %5, %4, %3, %2
  %.0.i = phi ptr [ @.str.3, %6 ], [ @.str.17, %5 ], [ @.str.16, %4 ], [ @.str.15, %3 ], [ @.str.14, %2 ]
  %8 = tail call ptr @__errno_location() #6
  store i32 %1, ptr %8, align 4
  tail call void @JNU_ThrowByNameWithLastError(ptr noundef %0, ptr noundef nonnull %.0.i, ptr noundef nonnull @.str.18) #7
  br label %handleSocketErrorWithMessage.exit

handleSocketErrorWithMessage.exit:                ; preds = %2, %7
  %.08.i = phi i32 [ 0, %2 ], [ -5, %7 ]
  ret i32 %.08.i
}